; Function Attrs: mustprogress nofree norecurse nosync nounwind willreturn memory(argmem: readwrite) uwtable
define internal noundef zeroext i1 @"_ZNSt17_Function_handlerIFKN4llvm7memprof5FrameEmEZNS1_16RawMemProfReader14readNextRecordERSt4pairImNS1_13MemProfRecordEESt8functionIS4_EE3$_0E10_M_managerERSt9_Any_dataRKSE_St18_Manager_operation"(ptr nocapture noundef nonnull writeonly align 8 dereferenceable(16) %0, ptr noundef nonnull align 8 dereferenceable(16) %1, i32 noundef %2) #15 align 2 {
  switch i32 %2, label %"_ZNSt14_Function_base13_Base_managerIZN4llvm7memprof16RawMemProfReader14readNextRecordERSt4pairImNS2_13MemProfRecordEESt8functionIFKNS2_5FrameEmEEE3$_0E10_M_managerERSt9_Any_dataRKSF_St18_Manager_operation.exit" [
    i32 1, label %4
    i32 0, label %5
    i32 2, label %6
  ]

4:                                                ; preds = %3
  store ptr %1, ptr %0, align 8
  br label %"_ZNSt14_Function_base13_Base_managerIZN4llvm7memprof16RawMemProfReader14readNextRecordERSt4pairImNS2_13MemProfRecordEESt8functionIFKNS2_5FrameEmEEE3$_0E10_M_managerERSt9_Any_dataRKSF_St18_Manager_operation.exit"

5:                                                ; preds = %3
  store ptr null, ptr %0, align 8
  br label %"_ZNSt14_Function_base13_Base_managerIZN4llvm7memprof16RawMemProfReader14readNextRecordERSt4pairImNS2_13MemProfRecordEESt8functionIFKNS2_5FrameEmEEE3$_0E10_M_managerERSt9_Any_dataRKSF_St18_Manager_operation.exit"

6:                                                ; preds = %3
  %.val = load i64, ptr %1, align 8
  store i64 %.val, ptr %0, align 8
  br label %"_ZNSt14_Function_base13_Base_managerIZN4llvm7memprof16RawMemProfReader14readNextRecordERSt4pairImNS2_13MemProfRecordEESt8functionIFKNS2_5FrameEmEEE3$_0E10_M_managerERSt9_Any_dataRKSF_St18_Manager_operation.exit"

"_ZNSt14_Function_base13_Base_managerIZN4llvm7memprof16RawMemProfReader14readNextRecordERSt4pairImNS2_13MemProfRecordEESt8functionIFKNS2_5FrameEmEEE3$_0E10_M_managerERSt9_Any_dataRKSF_St18_Manager_operation.exit": ; preds = %3, %6, %5, %4
  ret i1 false
}